target datalayout = "e-m:e-p270:32:32-p271:32:32-p272:64:64-i64:64-i128:128-f80:128-n8:16:32:64-S128"
target triple = "x86_64-pc-linux-gnu"

%struct.printTextLineFormat = type { ptr, ptr, ptr, ptr }
%struct.printTextFormat = type { ptr, [4 x %struct.printTextLineFormat], ptr, ptr, ptr, ptr, ptr, ptr, ptr, ptr, ptr, i8 }

@.str.32 = private unnamed_addr constant [5 x i8] c"%s%s\00", align 1
@.str.33 = private unnamed_addr constant [7 x i8] c"%s%s%s\00", align 1

; Function Attrs: nounwind uwtable
define internal void @_print_horizontal_line(i32 noundef %0, ptr noundef %1, i16 noundef zeroext %2, i32 noundef %3, ptr noundef %4, ptr noundef %5) #0 {
  %7 = alloca i32, align 4
  %8 = alloca ptr, align 8
  %9 = alloca i16, align 2
  %10 = alloca i32, align 4
  %11 = alloca ptr, align 8
  %12 = alloca ptr, align 8
  %13 = alloca ptr, align 8
  %14 = alloca i32, align 4
  %15 = alloca i32, align 4
  store i32 %0, ptr %7, align 4
  store ptr %1, ptr %8, align 8
  store i16 %2, ptr %9, align 2
  store i32 %3, ptr %10, align 4
  store ptr %4, ptr %11, align 8
  store ptr %5, ptr %12, align 8
  call void @llvm.lifetime.start.p0(i64 8, ptr %13) #8
  %16 = load ptr, ptr %11, align 8
  %17 = getelementptr inbounds nuw %struct.printTextFormat, ptr %16, i32 0, i32 1
  %18 = load i32, ptr %10, align 4
  %19 = zext i32 %18 to i64
  %20 = getelementptr inbounds nuw [4 x %struct.printTextLineFormat], ptr %17, i64 0, i64 %19
  store ptr %20, ptr %13, align 8
  call void @llvm.lifetime.start.p0(i64 4, ptr %14) #8
  call void @llvm.lifetime.start.p0(i64 4, ptr %15) #8
  %21 = load i16, ptr %9, align 2
  %22 = zext i16 %21 to i32
  %23 = icmp eq i32 %22, 1
  br i1 %23, label %24, label %30

24:                                               ; preds = %6
  %25 = load ptr, ptr %13, align 8
  %26 = getelementptr inbounds nuw %struct.printTextLineFormat, ptr %25, i32 0, i32 0
  %27 = load ptr, ptr %26, align 8
  %28 = load ptr, ptr %12, align 8
  %29 = call i32 @fputs(ptr noundef %27, ptr noundef %28)
  br label %44

30:                                               ; preds = %6
  %31 = load i16, ptr %9, align 2
  %32 = zext i16 %31 to i32
  %33 = icmp eq i32 %32, 2
  br i1 %33, label %34, label %43

34:                                               ; preds = %30
  %35 = load ptr, ptr %12, align 8
  %36 = load ptr, ptr %13, align 8
  %37 = getelementptr inbounds nuw %struct.printTextLineFormat, ptr %36, i32 0, i32 1
  %38 = load ptr, ptr %37, align 8
  %39 = load ptr, ptr %13, align 8
  %40 = getelementptr inbounds nuw %struct.printTextLineFormat, ptr %39, i32 0, i32 0
  %41 = load ptr, ptr %40, align 8
  %42 = call i32 (ptr, ptr, ...) @pg_fprintf(ptr noundef %35, ptr noundef @.str.32, ptr noundef %38, ptr noundef %41)
  br label %43

43:                                               ; preds = %34, %30
  br label %44

44:                                               ; preds = %43, %24
  store i32 0, ptr %14, align 4
  br label %45

45:                                               ; preds = %93, %44
  %46 = load i32, ptr %14, align 4
  %47 = load i32, ptr %7, align 4
  %48 = icmp ult i32 %46, %47
  br i1 %48, label %49, label %96

49:                                               ; preds = %45
  store i32 0, ptr %15, align 4
  br label %50

50:                                               ; preds = %64, %49
  %51 = load i32, ptr %15, align 4
  %52 = load ptr, ptr %8, align 8
  %53 = load i32, ptr %14, align 4
  %54 = zext i32 %53 to i64
  %55 = getelementptr inbounds nuw i32, ptr %52, i64 %54
  %56 = load i32, ptr %55, align 4
  %57 = icmp ult i32 %51, %56
  br i1 %57, label %58, label %67

58:                                               ; preds = %50
  %59 = load ptr, ptr %13, align 8
  %60 = getelementptr inbounds nuw %struct.printTextLineFormat, ptr %59, i32 0, i32 0
  %61 = load ptr, ptr %60, align 8
  %62 = load ptr, ptr %12, align 8
  %63 = call i32 @fputs(ptr noundef %61, ptr noundef %62)
  br label %64

64:                                               ; preds = %58
  %65 = load i32, ptr %15, align 4
  %66 = add i32 %65, 1
  store i32 %66, ptr %15, align 4
  br label %50, !llvm.loop !75

67:                                               ; preds = %50
  %68 = load i32, ptr %14, align 4
  %69 = load i32, ptr %7, align 4
  %70 = sub i32 %69, 1
  %71 = icmp ult i32 %68, %70
  br i1 %71, label %72, label %92

72:                                               ; preds = %67
  %73 = load i16, ptr %9, align 2
  %74 = zext i16 %73 to i32
  %75 = icmp eq i32 %74, 0
  br i1 %75, label %76, label %79

76:                                               ; preds = %72
  %77 = load ptr, ptr %12, align 8
  %78 = call i32 @fputc(i32 noundef 32, ptr noundef %77)
  br label %91

79:                                               ; preds = %72
  %80 = load ptr, ptr %12, align 8
  %81 = load ptr, ptr %13, align 8
  %82 = getelementptr inbounds nuw %struct.printTextLineFormat, ptr %81, i32 0, i32 0
  %83 = load ptr, ptr %82, align 8
  %84 = load ptr, ptr %13, align 8
  %85 = getelementptr inbounds nuw %struct.printTextLineFormat, ptr %84, i32 0, i32 2
  %86 = load ptr, ptr %85, align 8
  %87 = load ptr, ptr %13, align 8
  %88 = getelementptr inbounds nuw %struct.printTextLineFormat, ptr %87, i32 0, i32 0
  %89 = load ptr, ptr %88, align 8
  %90 = call i32 (ptr, ptr, ...) @pg_fprintf(ptr noundef %80, ptr noundef @.str.33, ptr noundef %83, ptr noundef %86, ptr noundef %89)
  br label %91

91:                                               ; preds = %79, %76
  br label %92

92:                                               ; preds = %91, %67
  br label %93

93:                                               ; preds = %92
  %94 = load i32, ptr %14, align 4
  %95 = add i32 %94, 1
  store i32 %95, ptr %14, align 4
  br label %45, !llvm.loop !76

96:                                               ; preds = %45
  %97 = load i16, ptr %9, align 2
  %98 = zext i16 %97 to i32
  %99 = icmp eq i32 %98, 2
  br i1 %99, label %100, label %109

100:                                              ; preds = %96
  %101 = load ptr, ptr %12, align 8
  %102 = load ptr, ptr %13, align 8
  %103 = getelementptr inbounds nuw %struct.printTextLineFormat, ptr %102, i32 0, i32 0
  %104 = load ptr, ptr %103, align 8
  %105 = load ptr, ptr %13, align 8
  %106 = getelementptr inbounds nuw %struct.printTextLineFormat, ptr %105, i32 0, i32 3
  %107 = load ptr, ptr %106, align 8
  %108 = call i32 (ptr, ptr, ...) @pg_fprintf(ptr noundef %101, ptr noundef @.str.32, ptr noundef %104, ptr noundef %107)
  br label %120

109:                                              ; preds = %96
  %110 = load i16, ptr %9, align 2
  %111 = zext i16 %110 to i32
  %112 = icmp eq i32 %111, 1
  br i1 %112, label %113, label %119

113:                                              ; preds = %109
  %114 = load ptr, ptr %13, align 8
  %115 = getelementptr inbounds nuw %struct.printTextLineFormat, ptr %114, i32 0, i32 0
  %116 = load ptr, ptr %115, align 8
  %117 = load ptr, ptr %12, align 8
  %118 = call i32 @fputs(ptr noundef %116, ptr noundef %117)
  br label %119

119:                                              ; preds = %113, %109
  br label %120

120:                                              ; preds = %119, %100
  %121 = load ptr, ptr %12, align 8
  %122 = call i32 @fputc(i32 noundef 10, ptr noundef %121)
  call void @llvm.lifetime.end.p0(i64 4, ptr %15) #8
  call void @llvm.lifetime.end.p0(i64 4, ptr %14) #8
  call void @llvm.lifetime.end.p0(i64 8, ptr %13) #8
  ret void
}