; Function Attrs: nounwind uwtable
define internal fastcc void @_print_horizontal_line(i32 noundef range(i32 0, -2147483648) %0, ptr noundef readonly captures(none) %1, i16 noundef zeroext %2, i32 noundef range(i32 0, 3) %3, ptr noundef readonly captures(none) %4, ptr noundef %5) unnamed_addr #3 {
  %7 = getelementptr inbounds nuw i8, ptr %4, i64 8
  %8 = zext nneg i32 %3 to i64
  %9 = getelementptr inbounds nuw [4 x %struct.printTextLineFormat], ptr %7, i64 0, i64 %8
  %10 = icmp eq i16 %2, 1
  br i1 %10, label %11, label %14

11:                                               ; preds = %6
  %12 = load ptr, ptr %9, align 8
  %13 = tail call i32 @fputs(ptr noundef %12, ptr noundef %5)
  br label %21

14:                                               ; preds = %6
  %15 = icmp eq i16 %2, 2
  br i1 %15, label %16, label %21

16:                                               ; preds = %14
  %17 = getelementptr inbounds nuw i8, ptr %9, i64 8
  %18 = load ptr, ptr %17, align 8
  %19 = load ptr, ptr %9, align 8
  %20 = tail call i32 (ptr, ptr, ...) @pg_fprintf(ptr noundef %5, ptr noundef nonnull @.str.32, ptr noundef %18, ptr noundef %19) #19
  br label %21

21:                                               ; preds = %14, %16, %11
  %.not = icmp eq i32 %0, 0
  br i1 %.not, label %._crit_edge38, label %.preheader.lr.ph

.preheader.lr.ph:                                 ; preds = %21
  %22 = add nsw i32 %0, -1
  %23 = icmp eq i16 %2, 0
  %24 = getelementptr inbounds nuw i8, ptr %9, i64 16
  %25 = zext nneg i32 %22 to i64
  %wide.trip.count46 = zext nneg i32 %0 to i64
  br i1 %23, label %.preheader.us, label %.preheader

.preheader.us:                                    ; preds = %.preheader.lr.ph, %31
  %indvars.iv43 = phi i64 [ %indvars.iv.next44, %31 ], [ 0, %.preheader.lr.ph ]
  %26 = getelementptr inbounds nuw i32, ptr %1, i64 %indvars.iv43
  %27 = load i32, ptr %26, align 4
  %.not40 = icmp eq i32 %27, 0
  br i1 %.not40, label %._crit_edge.us, label %.lr.ph.us

._crit_edge.us:                                   ; preds = %.lr.ph.us, %.preheader.us
  %28 = icmp samesign ult i64 %indvars.iv43, %25
  br i1 %28, label %29, label %31

29:                                               ; preds = %._crit_edge.us
  %30 = tail call i32 @fputc(i32 noundef 32, ptr noundef %5)
  br label %31

31:                                               ; preds = %29, %._crit_edge.us
  %indvars.iv.next44 = add nuw nsw i64 %indvars.iv43, 1
  %exitcond47.not = icmp eq i64 %indvars.iv.next44, %wide.trip.count46
  br i1 %exitcond47.not, label %._crit_edge38, label %.preheader.us, !llvm.loop !77

.lr.ph.us:                                        ; preds = %.preheader.us, %.lr.ph.us
  %.036.us = phi i32 [ %34, %.lr.ph.us ], [ 0, %.preheader.us ]
  %32 = load ptr, ptr %9, align 8
  %33 = tail call i32 @fputs(ptr noundef %32, ptr noundef %5)
  %34 = add nuw i32 %.036.us, 1
  %35 = load i32, ptr %26, align 4
  %36 = icmp ult i32 %34, %35
  br i1 %36, label %.lr.ph.us, label %._crit_edge.us, !llvm.loop !78

.preheader:                                       ; preds = %.preheader.lr.ph, %49
  %indvars.iv = phi i64 [ %indvars.iv.next, %49 ], [ 0, %.preheader.lr.ph ]
  %37 = getelementptr inbounds nuw i32, ptr %1, i64 %indvars.iv
  %38 = load i32, ptr %37, align 4
  %.not39 = icmp eq i32 %38, 0
  br i1 %.not39, label %._crit_edge, label %.lr.ph

.lr.ph:                                           ; preds = %.preheader, %.lr.ph
  %.036 = phi i32 [ %41, %.lr.ph ], [ 0, %.preheader ]
  %39 = load ptr, ptr %9, align 8
  %40 = tail call i32 @fputs(ptr noundef %39, ptr noundef %5)
  %41 = add nuw i32 %.036, 1
  %42 = load i32, ptr %37, align 4
  %43 = icmp ult i32 %41, %42
  br i1 %43, label %.lr.ph, label %._crit_edge, !llvm.loop !78

._crit_edge:                                      ; preds = %.lr.ph, %.preheader
  %44 = icmp samesign ult i64 %indvars.iv, %25
  br i1 %44, label %45, label %49

45:                                               ; preds = %._crit_edge
  %46 = load ptr, ptr %9, align 8
  %47 = load ptr, ptr %24, align 8
  %48 = tail call i32 (ptr, ptr, ...) @pg_fprintf(ptr noundef %5, ptr noundef nonnull @.str.33, ptr noundef %46, ptr noundef %47, ptr noundef %46) #19
  br label %49

49:                                               ; preds = %._crit_edge, %45
  %indvars.iv.next = add nuw nsw i64 %indvars.iv, 1
  %exitcond.not = icmp eq i64 %indvars.iv.next, %wide.trip.count46
  br i1 %exitcond.not, label %._crit_edge38, label %.preheader, !llvm.loop !77

._crit_edge38:                                    ; preds = %49, %31, %21
  %50 = icmp eq i16 %2, 2
  br i1 %50, label %51, label %56

51:                                               ; preds = %._crit_edge38
  %52 = load ptr, ptr %9, align 8
  %53 = getelementptr inbounds nuw i8, ptr %9, i64 24
  %54 = load ptr, ptr %53, align 8
  %55 = tail call i32 (ptr, ptr, ...) @pg_fprintf(ptr noundef %5, ptr noundef nonnull @.str.32, ptr noundef %52, ptr noundef %54) #19
  br label %60

56:                                               ; preds = %._crit_edge38
  br i1 %10, label %57, label %60

57:                                               ; preds = %56
  %58 = load ptr, ptr %9, align 8
  %59 = tail call i32 @fputs(ptr noundef %58, ptr noundef %5)
  br label %60

60:                                               ; preds = %56, %57, %51
  %61 = tail call i32 @fputc(i32 noundef 10, ptr noundef %5)
  ret void
}